target datalayout = "e-m:e-p270:32:32-p271:32:32-p272:64:64-i64:64-i128:128-f80:128-n8:16:32:64-S128"
target triple = "x86_64-pc-linux-gnu"

%struct._address = type { i32, i32, ptr, ptr }
%struct._packet_info = type { ptr, ptr, i32, i32, %struct.nstime_t, %struct.nstime_t, %struct.nstime_t, i8, ptr, ptr, ptr, ptr, %struct._address, %struct._address, %struct._address, %struct._address, %struct._address, %struct._address, i32, ptr, i8, [3 x i8], %struct.anon, i32, i32, i32, i32, ptr, i8, ptr, ptr, i16, i16, i32, i32, i16, i32, i32, ptr, ptr, ptr, i8, i8, i16, i16, i16, i32, i16, i16, ptr, ptr, ptr, ptr, ptr, i32, i32 }
%struct.nstime_t = type { i64, i32 }
%struct.anon = type { i8, [3 x i8] }

@hf_radius_cosine_vpi = internal global i32 0, align 4
@hf_radius_cosine_vci = internal global i32 0, align 4
@.str.312 = private unnamed_addr constant [29 x i8] c"[Wrong Length for VP/VC AVP]\00", align 1
@.str.313 = private unnamed_addr constant [6 x i8] c"%u/%u\00", align 1

; Function Attrs: null_pointer_is_valid sspstrong uwtable
define internal ptr @dissect_cosine_vpvc(ptr noundef %0, ptr noundef %1, ptr noundef %2) #0 {
  %4 = alloca ptr, align 8
  %5 = alloca ptr, align 8
  %6 = alloca ptr, align 8
  %7 = alloca ptr, align 8
  %8 = alloca i32, align 4
  %9 = alloca i32, align 4
  %10 = alloca i32, align 4
  store ptr %0, ptr %5, align 8
  store ptr %1, ptr %6, align 8
  store ptr %2, ptr %7, align 8
  call void @llvm.lifetime.start.p0(i64 4, ptr %8) #17
  call void @llvm.lifetime.start.p0(i64 4, ptr %9) #17
  %11 = load ptr, ptr %6, align 8
  %12 = call i32 @tvb_reported_length(ptr noundef %11)
  %13 = icmp ne i32 %12, 4
  br i1 %13, label %14, label %15

14:                                               ; preds = %3
  store ptr @.str.312, ptr %4, align 8
  store i32 1, ptr %10, align 4
  br label %38

15:                                               ; preds = %3
  %16 = load ptr, ptr %6, align 8
  %17 = call zeroext i16 @tvb_get_ntohs(ptr noundef %16, i32 noundef 0)
  %18 = zext i16 %17 to i32
  store i32 %18, ptr %8, align 4
  %19 = load ptr, ptr %6, align 8
  %20 = call zeroext i16 @tvb_get_ntohs(ptr noundef %19, i32 noundef 2)
  %21 = zext i16 %20 to i32
  store i32 %21, ptr %9, align 4
  %22 = load ptr, ptr %5, align 8
  %23 = load i32, ptr @hf_radius_cosine_vpi, align 4
  %24 = load ptr, ptr %6, align 8
  %25 = load i32, ptr %8, align 4
  %26 = call ptr @proto_tree_add_uint(ptr noundef %22, i32 noundef %23, ptr noundef %24, i32 noundef 0, i32 noundef 2, i32 noundef %25)
  %27 = load ptr, ptr %5, align 8
  %28 = load i32, ptr @hf_radius_cosine_vci, align 4
  %29 = load ptr, ptr %6, align 8
  %30 = load i32, ptr %9, align 4
  %31 = call ptr @proto_tree_add_uint(ptr noundef %27, i32 noundef %28, ptr noundef %29, i32 noundef 2, i32 noundef 2, i32 noundef %30)
  %32 = load ptr, ptr %7, align 8
  %33 = getelementptr inbounds nuw %struct._packet_info, ptr %32, i32 0, i32 51
  %34 = load ptr, ptr %33, align 8
  %35 = load i32, ptr %8, align 4
  %36 = load i32, ptr %9, align 4
  %37 = call noalias ptr (ptr, ptr, ...) @wmem_strdup_printf(ptr noundef %34, ptr noundef @.str.313, i32 noundef %35, i32 noundef %36)
  store ptr %37, ptr %4, align 8
  store i32 1, ptr %10, align 4
  br label %38

38:                                               ; preds = %15, %14
  call void @llvm.lifetime.end.p0(i64 4, ptr %9) #17
  call void @llvm.lifetime.end.p0(i64 4, ptr %8) #17
  %39 = load ptr, ptr %4, align 8
  ret ptr %39
}