; Function Attrs: null_pointer_is_valid sspstrong uwtable
define internal ptr @dissect_cosine_vpvc(ptr noundef %0, ptr noundef %1, ptr noundef readonly captures(none) %2) #0 {
  %4 = tail call i32 @tvb_reported_length(ptr noundef %1)
  %.not = icmp eq i32 %4, 4
  br i1 %.not, label %5, label %17

5:                                                ; preds = %3
  %6 = tail call zeroext i16 @tvb_get_ntohs(ptr noundef %1, i32 noundef 0)
  %7 = zext i16 %6 to i32
  %8 = tail call zeroext i16 @tvb_get_ntohs(ptr noundef %1, i32 noundef 2)
  %9 = zext i16 %8 to i32
  %10 = load i32, ptr @hf_radius_cosine_vpi, align 4
  %11 = tail call ptr @proto_tree_add_uint(ptr noundef %0, i32 noundef %10, ptr noundef %1, i32 noundef 0, i32 noundef 2, i32 noundef %7)
  %12 = load i32, ptr @hf_radius_cosine_vci, align 4
  %13 = tail call ptr @proto_tree_add_uint(ptr noundef %0, i32 noundef %12, ptr noundef %1, i32 noundef 2, i32 noundef 2, i32 noundef %9)
  %14 = getelementptr inbounds nuw i8, ptr %2, i64 408
  %15 = load ptr, ptr %14, align 8
  %16 = tail call noalias ptr (ptr, ptr, ...) @wmem_strdup_printf(ptr noundef %15, ptr noundef nonnull @.str.313, i32 noundef %7, i32 noundef %9)
  br label %17

17:                                               ; preds = %3, %5
  %.0 = phi ptr [ %16, %5 ], [ @.str.312, %3 ]
  ret ptr %.0
}